target datalayout = "e-m:e-p270:32:32-p271:32:32-p272:64:64-i64:64-i128:128-f80:128-n8:16:32:64-S128"
target triple = "x86_64-pc-linux-gnu"

%struct.FuncState = type { ptr, ptr, ptr, ptr, ptr, i32, i32, i32, i32, i32, i32, i32, i32, ptr, i32, i32, i8, i8, i8, i8, [200 x i16], [60 x i16], [60 x i16] }
%struct.BCInsLine = type { i32, i32 }

; Function Attrs: nounwind uwtable
define internal void @jmp_patchins(ptr noundef %0, i32 noundef %1, i32 noundef %2) #0 {
  %4 = alloca ptr, align 8
  %5 = alloca i32, align 4
  %6 = alloca i32, align 4
  %7 = alloca ptr, align 8
  %8 = alloca i32, align 4
  store ptr %0, ptr %4, align 8, !tbaa !62
  store i32 %1, ptr %5, align 4, !tbaa !79
  store i32 %2, ptr %6, align 4, !tbaa !79
  call void @llvm.lifetime.start.p0(i64 8, ptr %7) #11
  %9 = load ptr, ptr %4, align 8, !tbaa !62
  %10 = getelementptr inbounds nuw %struct.FuncState, ptr %9, i32 0, i32 13
  %11 = load ptr, ptr %10, align 8, !tbaa !55
  %12 = load i32, ptr %5, align 4, !tbaa !79
  %13 = zext i32 %12 to i64
  %14 = getelementptr inbounds nuw %struct.BCInsLine, ptr %11, i64 %13
  %15 = getelementptr inbounds nuw %struct.BCInsLine, ptr %14, i32 0, i32 0
  store ptr %15, ptr %7, align 8, !tbaa !108
  call void @llvm.lifetime.start.p0(i64 4, ptr %8) #11
  %16 = load i32, ptr %6, align 4, !tbaa !79
  %17 = load i32, ptr %5, align 4, !tbaa !79
  %18 = add i32 %17, 1
  %19 = sub i32 %16, %18
  %20 = add i32 %19, 32768
  store i32 %20, ptr %8, align 4, !tbaa !79
  %21 = load i32, ptr %8, align 4, !tbaa !79
  %22 = icmp ugt i32 %21, 65535
  br i1 %22, label %23, label %27

23:                                               ; preds = %3
  %24 = load ptr, ptr %4, align 8, !tbaa !62
  %25 = getelementptr inbounds nuw %struct.FuncState, ptr %24, i32 0, i32 1
  %26 = load ptr, ptr %25, align 8, !tbaa !64
  call void @err_syntax(ptr noundef %26, i32 noundef 2399) #13
  unreachable

27:                                               ; preds = %3
  %28 = load i32, ptr %8, align 4, !tbaa !79
  %29 = trunc i32 %28 to i16
  %30 = load ptr, ptr %7, align 8, !tbaa !108
  %31 = getelementptr inbounds i16, ptr %30, i64 1
  store i16 %29, ptr %31, align 2, !tbaa !110
  call void @llvm.lifetime.end.p0(i64 4, ptr %8) #11
  call void @llvm.lifetime.end.p0(i64 8, ptr %7) #11
  ret void
}

; Function Attrs: nounwind uwtable
define internal i32 @jmp_patchtestreg(ptr noundef %0, i32 noundef %1, i32 noundef %2) #0 {
  %4 = alloca i32, align 4
  %5 = alloca ptr, align 8
  %6 = alloca i32, align 4
  %7 = alloca i32, align 4
  %8 = alloca ptr, align 8
  %9 = alloca i32, align 4
  %10 = alloca i32, align 4
  store ptr %0, ptr %5, align 8, !tbaa !62
  store i32 %1, ptr %6, align 4, !tbaa !79
  store i32 %2, ptr %7, align 4, !tbaa !79
  call void @llvm.lifetime.start.p0(i64 8, ptr %8) #11
  %11 = load ptr, ptr %5, align 8, !tbaa !62
  %12 = getelementptr inbounds nuw %struct.FuncState, ptr %11, i32 0, i32 13
  %13 = load ptr, ptr %12, align 8, !tbaa !55
  %14 = load i32, ptr %6, align 4, !tbaa !79
  %15 = icmp uge i32 %14, 1
  br i1 %15, label %16, label %19

16:                                               ; preds = %3
  %17 = load i32, ptr %6, align 4, !tbaa !79
  %18 = sub i32 %17, 1
  br label %21

19:                                               ; preds = %3
  %20 = load i32, ptr %6, align 4, !tbaa !79
  br label %21

21:                                               ; preds = %19, %16
  %22 = phi i32 [ %18, %16 ], [ %20, %19 ]
  %23 = zext i32 %22 to i64
  %24 = getelementptr inbounds nuw %struct.BCInsLine, ptr %13, i64 %23
  store ptr %24, ptr %8, align 8, !tbaa !107
  call void @llvm.lifetime.start.p0(i64 4, ptr %9) #11
  %25 = load ptr, ptr %8, align 8, !tbaa !107
  %26 = getelementptr inbounds nuw %struct.BCInsLine, ptr %25, i32 0, i32 0
  %27 = load i32, ptr %26, align 4, !tbaa !87
  %28 = and i32 %27, 255
  store i32 %28, ptr %9, align 4, !tbaa !79
  %29 = load i32, ptr %9, align 4, !tbaa !79
  %30 = icmp eq i32 %29, 12
  br i1 %30, label %34, label %31

31:                                               ; preds = %21
  %32 = load i32, ptr %9, align 4, !tbaa !79
  %33 = icmp eq i32 %32, 13
  br i1 %33, label %34, label %61

34:                                               ; preds = %31, %21
  %35 = load i32, ptr %7, align 4, !tbaa !79
  %36 = icmp ne i32 %35, 255
  br i1 %36, label %37, label %50

37:                                               ; preds = %34
  %38 = load i32, ptr %7, align 4, !tbaa !79
  %39 = load ptr, ptr %8, align 8, !tbaa !107
  %40 = getelementptr inbounds nuw %struct.BCInsLine, ptr %39, i32 0, i32 0
  %41 = load i32, ptr %40, align 4, !tbaa !87
  %42 = lshr i32 %41, 16
  %43 = icmp ne i32 %38, %42
  br i1 %43, label %44, label %50

44:                                               ; preds = %37
  %45 = load i32, ptr %7, align 4, !tbaa !79
  %46 = trunc i32 %45 to i8
  %47 = load ptr, ptr %8, align 8, !tbaa !107
  %48 = getelementptr inbounds nuw %struct.BCInsLine, ptr %47, i32 0, i32 0
  %49 = getelementptr inbounds i8, ptr %48, i64 1
  store i8 %46, ptr %49, align 1, !tbaa !32
  br label %60

50:                                               ; preds = %37, %34
  %51 = load i32, ptr %9, align 4, !tbaa !79
  %52 = add i32 %51, 2
  %53 = trunc i32 %52 to i8
  %54 = load ptr, ptr %8, align 8, !tbaa !107
  %55 = getelementptr inbounds nuw %struct.BCInsLine, ptr %54, i32 0, i32 0
  %56 = getelementptr inbounds i8, ptr %55, i64 0
  store i8 %53, ptr %56, align 4, !tbaa !32
  %57 = load ptr, ptr %8, align 8, !tbaa !107
  %58 = getelementptr inbounds nuw %struct.BCInsLine, ptr %57, i32 0, i32 0
  %59 = getelementptr inbounds i8, ptr %58, i64 1
  store i8 0, ptr %59, align 1, !tbaa !32
  br label %60

60:                                               ; preds = %50, %44
  br label %113

61:                                               ; preds = %31
  %62 = load ptr, ptr %8, align 8, !tbaa !107
  %63 = getelementptr inbounds nuw %struct.BCInsLine, ptr %62, i32 0, i32 0
  %64 = load i32, ptr %63, align 4, !tbaa !87
  %65 = lshr i32 %64, 8
  %66 = and i32 %65, 255
  %67 = icmp eq i32 %66, 255
  br i1 %67, label %68, label %111

68:                                               ; preds = %61
  %69 = load i32, ptr %7, align 4, !tbaa !79
  %70 = icmp eq i32 %69, 255
  br i1 %70, label %71, label %87

71:                                               ; preds = %68
  %72 = load ptr, ptr %5, align 8, !tbaa !62
  %73 = getelementptr inbounds nuw %struct.FuncState, ptr %72, i32 0, i32 13
  %74 = load ptr, ptr %73, align 8, !tbaa !55
  %75 = load i32, ptr %6, align 4, !tbaa !79
  %76 = zext i32 %75 to i64
  %77 = getelementptr inbounds nuw %struct.BCInsLine, ptr %74, i64 %76
  %78 = getelementptr inbounds nuw %struct.BCInsLine, ptr %77, i32 0, i32 0
  %79 = load i32, ptr %78, align 4, !tbaa !87
  %80 = lshr i32 %79, 8
  %81 = and i32 %80, 255
  %82 = shl i32 %81, 8
  %83 = or i32 88, %82
  %84 = or i32 %83, -2147483648
  %85 = load ptr, ptr %8, align 8, !tbaa !107
  %86 = getelementptr inbounds nuw %struct.BCInsLine, ptr %85, i32 0, i32 0
  store i32 %84, ptr %86, align 4, !tbaa !87
  br label %110

87:                                               ; preds = %68
  %88 = load i32, ptr %7, align 4, !tbaa !79
  %89 = trunc i32 %88 to i8
  %90 = load ptr, ptr %8, align 8, !tbaa !107
  %91 = getelementptr inbounds nuw %struct.BCInsLine, ptr %90, i32 0, i32 0
  %92 = getelementptr inbounds i8, ptr %91, i64 1
  store i8 %89, ptr %92, align 1, !tbaa !32
  %93 = load i32, ptr %7, align 4, !tbaa !79
  %94 = load ptr, ptr %8, align 8, !tbaa !107
  %95 = getelementptr inbounds %struct.BCInsLine, ptr %94, i64 1
  %96 = getelementptr inbounds nuw %struct.BCInsLine, ptr %95, i32 0, i32 0
  %97 = load i32, ptr %96, align 4, !tbaa !87
  %98 = lshr i32 %97, 8
  %99 = and i32 %98, 255
  %100 = icmp uge i32 %93, %99
  br i1 %100, label %101, label %109

101:                                              ; preds = %87
  %102 = load i32, ptr %7, align 4, !tbaa !79
  %103 = add i32 %102, 1
  %104 = trunc i32 %103 to i8
  %105 = load ptr, ptr %8, align 8, !tbaa !107
  %106 = getelementptr inbounds %struct.BCInsLine, ptr %105, i64 1
  %107 = getelementptr inbounds nuw %struct.BCInsLine, ptr %106, i32 0, i32 0
  %108 = getelementptr inbounds i8, ptr %107, i64 1
  store i8 %104, ptr %108, align 1, !tbaa !32
  br label %109

109:                                              ; preds = %101, %87
  br label %110

110:                                              ; preds = %109, %71
  br label %112

111:                                              ; preds = %61
  store i32 0, ptr %4, align 4
  store i32 1, ptr %10, align 4
  br label %114

112:                                              ; preds = %110
  br label %113

113:                                              ; preds = %112, %60
  store i32 1, ptr %4, align 4
  store i32 1, ptr %10, align 4
  br label %114

114:                                              ; preds = %113, %111
  call void @llvm.lifetime.end.p0(i64 4, ptr %9) #11
  call void @llvm.lifetime.end.p0(i64 8, ptr %8) #11
  %115 = load i32, ptr %4, align 4
  ret i32 %115
}

; Function Attrs: nounwind uwtable
define internal i32 @jmp_next(ptr noundef %0, i32 noundef %1) #0 {
  %3 = alloca i32, align 4
  %4 = alloca ptr, align 8
  %5 = alloca i32, align 4
  %6 = alloca i64, align 8
  %7 = alloca i32, align 4
  store ptr %0, ptr %4, align 8, !tbaa !62
  store i32 %1, ptr %5, align 4, !tbaa !79
  call void @llvm.lifetime.start.p0(i64 8, ptr %6) #11
  %8 = load ptr, ptr %4, align 8, !tbaa !62
  %9 = getelementptr inbounds nuw %struct.FuncState, ptr %8, i32 0, i32 13
  %10 = load ptr, ptr %9, align 8, !tbaa !55
  %11 = load i32, ptr %5, align 4, !tbaa !79
  %12 = zext i32 %11 to i64
  %13 = getelementptr inbounds nuw %struct.BCInsLine, ptr %10, i64 %12
  %14 = getelementptr inbounds nuw %struct.BCInsLine, ptr %13, i32 0, i32 0
  %15 = load i32, ptr %14, align 4, !tbaa !87
  %16 = lshr i32 %15, 16
  %17 = zext i32 %16 to i64
  %18 = sub nsw i64 %17, 32768
  store i64 %18, ptr %6, align 8, !tbaa !11
  %19 = load i64, ptr %6, align 8, !tbaa !11
  %20 = trunc i64 %19 to i32
  %21 = icmp eq i32 %20, -1
  br i1 %21, label %22, label %23

22:                                               ; preds = %2
  store i32 -1, ptr %3, align 4
  store i32 1, ptr %7, align 4
  br label %30

23:                                               ; preds = %2
  %24 = load i32, ptr %5, align 4, !tbaa !79
  %25 = zext i32 %24 to i64
  %26 = add nsw i64 %25, 1
  %27 = load i64, ptr %6, align 8, !tbaa !11
  %28 = add nsw i64 %26, %27
  %29 = trunc i64 %28 to i32
  store i32 %29, ptr %3, align 4
  store i32 1, ptr %7, align 4
  br label %30

30:                                               ; preds = %23, %22
  call void @llvm.lifetime.end.p0(i64 8, ptr %6) #11
  %31 = load i32, ptr %3, align 4
  ret i32 %31
}

; Function Attrs: nounwind uwtable
define internal void @jmp_patchval(ptr noundef %0, i32 noundef %1, i32 noundef %2, i32 noundef %3, i32 noundef %4) #0 {
  %6 = alloca ptr, align 8
  %7 = alloca i32, align 4
  %8 = alloca i32, align 4
  %9 = alloca i32, align 4
  %10 = alloca i32, align 4
  %11 = alloca i32, align 4
  store ptr %0, ptr %6, align 8, !tbaa !62
  store i32 %1, ptr %7, align 4, !tbaa !79
  store i32 %2, ptr %8, align 4, !tbaa !79
  store i32 %3, ptr %9, align 4, !tbaa !79
  store i32 %4, ptr %10, align 4, !tbaa !79
  br label %12

12:                                               ; preds = %32, %5
  %13 = load i32, ptr %7, align 4, !tbaa !79
  %14 = icmp ne i32 %13, -1
  br i1 %14, label %15, label %34

15:                                               ; preds = %12
  call void @llvm.lifetime.start.p0(i64 4, ptr %11) #11
  %16 = load ptr, ptr %6, align 8, !tbaa !62
  %17 = load i32, ptr %7, align 4, !tbaa !79
  %18 = call i32 @jmp_next(ptr noundef %16, i32 noundef %17)
  store i32 %18, ptr %11, align 4, !tbaa !79
  %19 = load ptr, ptr %6, align 8, !tbaa !62
  %20 = load i32, ptr %7, align 4, !tbaa !79
  %21 = load i32, ptr %9, align 4, !tbaa !79
  %22 = call i32 @jmp_patchtestreg(ptr noundef %19, i32 noundef %20, i32 noundef %21)
  %23 = icmp ne i32 %22, 0
  br i1 %23, label %24, label %28

24:                                               ; preds = %15
  %25 = load ptr, ptr %6, align 8, !tbaa !62
  %26 = load i32, ptr %7, align 4, !tbaa !79
  %27 = load i32, ptr %8, align 4, !tbaa !79
  call void @jmp_patchins(ptr noundef %25, i32 noundef %26, i32 noundef %27)
  br label %32

28:                                               ; preds = %15
  %29 = load ptr, ptr %6, align 8, !tbaa !62
  %30 = load i32, ptr %7, align 4, !tbaa !79
  %31 = load i32, ptr %10, align 4, !tbaa !79
  call void @jmp_patchins(ptr noundef %29, i32 noundef %30, i32 noundef %31)
  br label %32

32:                                               ; preds = %28, %24
  %33 = load i32, ptr %11, align 4, !tbaa !79
  store i32 %33, ptr %7, align 4, !tbaa !79
  call void @llvm.lifetime.end.p0(i64 4, ptr %11) #11
  br label %12, !llvm.loop !106

34:                                               ; preds = %12
  ret void
}