; Function Attrs: nounwind uwtable
define internal fastcc void @jmp_patchval(ptr noundef readonly captures(none) %0, i32 noundef %1, i32 noundef %2, i32 noundef %3, i32 noundef %4) unnamed_addr #0 {
  %.not19 = icmp eq i32 %1, -1
  br i1 %.not19, label %._crit_edge, label %.lr.ph

.lr.ph:                                           ; preds = %5
  %6 = getelementptr i8, ptr %0, i64 72
  %7 = icmp eq i32 %3, 255
  %8 = trunc i32 %3 to i8
  %9 = add i8 %8, 1
  %.val.pre = load ptr, ptr %6, align 8, !tbaa !67
  br label %10

10:                                               ; preds = %.lr.ph, %jmp_patchins.exit16
  %11 = phi ptr [ %.val.pre, %.lr.ph ], [ %62, %jmp_patchins.exit16 ]
  %.020 = phi i32 [ %1, %.lr.ph ], [ %21, %jmp_patchins.exit16 ]
  %12 = zext i32 %.020 to i64
  %13 = getelementptr inbounds nuw %struct.BCInsLine, ptr %11, i64 %12
  %14 = load i32, ptr %13, align 4, !tbaa !68
  %15 = lshr i32 %14, 16
  %16 = zext nneg i32 %15 to i64
  %17 = add nsw i64 %16, -32768
  %18 = icmp eq i64 %17, -1
  %19 = add nuw nsw i64 %12, 1
  %20 = add nsw i64 %19, %17
  %21 = trunc i64 %20 to i32
  %22 = tail call i32 @llvm.usub.sat.i32(i32 range(i32 0, -1) %.020, i32 1)
  %23 = zext i32 %22 to i64
  %24 = getelementptr inbounds nuw %struct.BCInsLine, ptr %11, i64 %23
  %25 = load i32, ptr %24, align 4, !tbaa !68
  %26 = and i32 %25, 254
  %or.cond.i = icmp eq i32 %26, 12
  br i1 %or.cond.i, label %27, label %35

27:                                               ; preds = %10
  %28 = lshr i32 %25, 16
  %.not29.i = icmp eq i32 %3, %28
  %or.cond30.i = or i1 %7, %.not29.i
  br i1 %or.cond30.i, label %31, label %29

29:                                               ; preds = %27
  %30 = getelementptr inbounds nuw i8, ptr %24, i64 1
  store i8 %8, ptr %30, align 1, !tbaa !25
  br label %50

31:                                               ; preds = %27
  %32 = trunc i32 %25 to i8
  %33 = or disjoint i8 %32, 2
  store i8 %33, ptr %24, align 4, !tbaa !25
  %34 = getelementptr inbounds nuw i8, ptr %24, i64 1
  store i8 0, ptr %34, align 1, !tbaa !25
  br label %50

35:                                               ; preds = %10
  %36 = and i32 %25, 65280
  %37 = icmp eq i32 %36, 65280
  br i1 %37, label %38, label %jmp_patchtestreg.exit

38:                                               ; preds = %35
  br i1 %7, label %39, label %42

39:                                               ; preds = %38
  %40 = and i32 %14, 65280
  %41 = or disjoint i32 %40, -2147483560
  store i32 %41, ptr %24, align 4, !tbaa !68
  br label %50

42:                                               ; preds = %38
  %43 = getelementptr inbounds nuw i8, ptr %24, i64 1
  store i8 %8, ptr %43, align 1, !tbaa !25
  %44 = getelementptr inbounds nuw i8, ptr %24, i64 8
  %45 = load i32, ptr %44, align 4, !tbaa !68
  %46 = lshr i32 %45, 8
  %47 = and i32 %46, 255
  %.not.i = icmp ult i32 %3, %47
  br i1 %.not.i, label %50, label %48

48:                                               ; preds = %42
  %49 = getelementptr inbounds nuw i8, ptr %24, i64 9
  store i8 %9, ptr %49, align 1, !tbaa !25
  br label %50

50:                                               ; preds = %42, %48, %39, %29, %31
  %reass.sub.i = sub i32 %2, %.020
  %51 = add i32 %reass.sub.i, 32767
  %52 = icmp ugt i32 %51, 65535
  br i1 %52, label %53, label %jmp_patchins.exit

53:                                               ; preds = %50
  %54 = getelementptr inbounds nuw i8, ptr %0, i64 8
  %55 = load ptr, ptr %54, align 8, !tbaa !47
  tail call fastcc void @err_syntax(ptr noundef %55, i32 noundef 2399) #13
  unreachable

jmp_patchins.exit:                                ; preds = %50
  %56 = load ptr, ptr %6, align 8, !tbaa !67
  br label %jmp_patchins.exit16

jmp_patchtestreg.exit:                            ; preds = %35
  %reass.sub.i15 = sub i32 %4, %.020
  %57 = add i32 %reass.sub.i15, 32767
  %58 = icmp ugt i32 %57, 65535
  br i1 %58, label %59, label %jmp_patchins.exit16

59:                                               ; preds = %jmp_patchtestreg.exit
  %60 = getelementptr inbounds nuw i8, ptr %0, i64 8
  %61 = load ptr, ptr %60, align 8, !tbaa !47
  tail call fastcc void @err_syntax(ptr noundef %61, i32 noundef 2399) #13
  unreachable

jmp_patchins.exit16:                              ; preds = %jmp_patchtestreg.exit, %jmp_patchins.exit
  %.sink25 = phi i32 [ %51, %jmp_patchins.exit ], [ %57, %jmp_patchtestreg.exit ]
  %62 = phi ptr [ %56, %jmp_patchins.exit ], [ %11, %jmp_patchtestreg.exit ]
  %63 = getelementptr inbounds nuw %struct.BCInsLine, ptr %62, i64 %12
  %64 = trunc nuw i32 %.sink25 to i16
  %65 = getelementptr inbounds nuw i8, ptr %63, i64 2
  store i16 %64, ptr %65, align 2, !tbaa !70
  %.not26 = icmp eq i32 %21, -1
  %.not = select i1 %18, i1 true, i1 %.not26
  br i1 %.not, label %._crit_edge, label %10, !llvm.loop !72

._crit_edge:                                      ; preds = %jmp_patchins.exit16, %5
  ret void
}